target datalayout = "e-m:e-p270:32:32-p271:32:32-p272:64:64-i64:64-i128:128-f80:128-n8:16:32:64-S128"
target triple = "x86_64-pc-linux-gnu"

%struct.jpeg_decompress_struct = type { ptr, ptr, ptr, ptr, i32, i32, ptr, i32, i32, i32, i32, i32, i32, i32, double, i32, i32, i32, i32, i32, i32, i32, i32, i32, i32, i32, i32, i32, i32, i32, i32, i32, i32, ptr, i32, i32, i32, i32, i32, ptr, [4 x ptr], [4 x ptr], [4 x ptr], i32, ptr, i32, i32, [16 x i8], [16 x i8], [16 x i8], i32, i32, i8, i8, i8, i16, i16, i32, i8, i32, ptr, i32, i32, i32, i32, ptr, i32, [4 x ptr], i32, i32, i32, [10 x i32], i32, i32, i32, i32, i32, ptr, ptr, ptr, ptr, ptr, ptr, ptr, ptr, ptr, ptr, ptr }
%struct.jpeg_error_mgr = type { ptr, ptr, ptr, ptr, ptr, i32, %union.anon, i32, i64, ptr, i32, ptr, i32, i32 }
%union.anon = type { [8 x i32], [48 x i8] }
%struct.jpeg_memory_mgr = type { ptr, ptr, ptr, ptr, ptr, ptr, ptr, ptr, ptr, ptr, ptr, i64, i64 }
%struct.bmp_dest_struct = type { %struct.djpeg_dest_struct, i32, ptr, i32, i32, i32, i32, i32, ptr }
%struct.djpeg_dest_struct = type { ptr, ptr, ptr, ptr, ptr, ptr, ptr, ptr, i32 }
%struct.cdjpeg_progress_mgr = type { %struct.jpeg_progress_mgr, i32, i32, i32, i32, i32 }
%struct.jpeg_progress_mgr = type { ptr, i64, i64, i32, i32 }

; Function Attrs: nounwind uwtable
define internal void @finish_output_bmp(ptr noundef %0, ptr noundef %1) #0 {
  %3 = alloca ptr, align 8
  %4 = alloca ptr, align 8
  %5 = alloca ptr, align 8
  %6 = alloca ptr, align 8
  %7 = alloca ptr, align 8
  %8 = alloca ptr, align 8
  %9 = alloca i32, align 4
  %10 = alloca ptr, align 8
  store ptr %0, ptr %3, align 8, !tbaa !4
  store ptr %1, ptr %4, align 8, !tbaa !79
  call void @llvm.lifetime.start.p0(i64 8, ptr %5) #7
  %11 = load ptr, ptr %4, align 8, !tbaa !79
  store ptr %11, ptr %5, align 8, !tbaa !43
  call void @llvm.lifetime.start.p0(i64 8, ptr %6) #7
  %12 = load ptr, ptr %5, align 8, !tbaa !43
  %13 = getelementptr inbounds nuw %struct.bmp_dest_struct, ptr %12, i32 0, i32 0
  %14 = getelementptr inbounds nuw %struct.djpeg_dest_struct, ptr %13, i32 0, i32 4
  %15 = load ptr, ptr %14, align 8, !tbaa !81
  store ptr %15, ptr %6, align 8, !tbaa !82
  call void @llvm.lifetime.start.p0(i64 8, ptr %7) #7
  call void @llvm.lifetime.start.p0(i64 8, ptr %8) #7
  call void @llvm.lifetime.start.p0(i64 4, ptr %9) #7
  call void @llvm.lifetime.start.p0(i64 8, ptr %10) #7
  %16 = load ptr, ptr %3, align 8, !tbaa !4
  %17 = getelementptr inbounds nuw %struct.jpeg_decompress_struct, ptr %16, i32 0, i32 2
  %18 = load ptr, ptr %17, align 8, !tbaa !68
  store ptr %18, ptr %10, align 8, !tbaa !69
  %19 = load ptr, ptr %5, align 8, !tbaa !43
  %20 = getelementptr inbounds nuw %struct.bmp_dest_struct, ptr %19, i32 0, i32 7
  %21 = load i32, ptr %20, align 8, !tbaa !75
  %22 = icmp ne i32 %21, 0
  br i1 %22, label %23, label %101

23:                                               ; preds = %2
  %24 = load ptr, ptr %5, align 8, !tbaa !43
  %25 = getelementptr inbounds nuw %struct.bmp_dest_struct, ptr %24, i32 0, i32 1
  %26 = load i32, ptr %25, align 8, !tbaa !52
  %27 = icmp ne i32 %26, 0
  br i1 %27, label %28, label %31

28:                                               ; preds = %23
  %29 = load ptr, ptr %3, align 8, !tbaa !4
  %30 = load ptr, ptr %5, align 8, !tbaa !43
  call void @write_os2_header(ptr noundef %29, ptr noundef %30)
  br label %34

31:                                               ; preds = %23
  %32 = load ptr, ptr %3, align 8, !tbaa !4
  %33 = load ptr, ptr %5, align 8, !tbaa !43
  call void @write_bmp_header(ptr noundef %32, ptr noundef %33)
  br label %34

34:                                               ; preds = %31, %28
  %35 = load ptr, ptr %3, align 8, !tbaa !4
  %36 = getelementptr inbounds nuw %struct.jpeg_decompress_struct, ptr %35, i32 0, i32 28
  %37 = load i32, ptr %36, align 4, !tbaa !65
  store i32 %37, ptr %9, align 4, !tbaa !9
  br label %38

38:                                               ; preds = %89, %34
  %39 = load i32, ptr %9, align 4, !tbaa !9
  %40 = icmp ugt i32 %39, 0
  br i1 %40, label %41, label %92

41:                                               ; preds = %38
  %42 = load ptr, ptr %10, align 8, !tbaa !69
  %43 = icmp ne ptr %42, null
  br i1 %43, label %44, label %66

44:                                               ; preds = %41
  %45 = load ptr, ptr %3, align 8, !tbaa !4
  %46 = getelementptr inbounds nuw %struct.jpeg_decompress_struct, ptr %45, i32 0, i32 28
  %47 = load i32, ptr %46, align 4, !tbaa !65
  %48 = load i32, ptr %9, align 4, !tbaa !9
  %49 = sub i32 %47, %48
  %50 = zext i32 %49 to i64
  %51 = load ptr, ptr %10, align 8, !tbaa !69
  %52 = getelementptr inbounds nuw %struct.cdjpeg_progress_mgr, ptr %51, i32 0, i32 0
  %53 = getelementptr inbounds nuw %struct.jpeg_progress_mgr, ptr %52, i32 0, i32 1
  store i64 %50, ptr %53, align 8, !tbaa !83
  %54 = load ptr, ptr %3, align 8, !tbaa !4
  %55 = getelementptr inbounds nuw %struct.jpeg_decompress_struct, ptr %54, i32 0, i32 28
  %56 = load i32, ptr %55, align 4, !tbaa !65
  %57 = zext i32 %56 to i64
  %58 = load ptr, ptr %10, align 8, !tbaa !69
  %59 = getelementptr inbounds nuw %struct.cdjpeg_progress_mgr, ptr %58, i32 0, i32 0
  %60 = getelementptr inbounds nuw %struct.jpeg_progress_mgr, ptr %59, i32 0, i32 2
  store i64 %57, ptr %60, align 8, !tbaa !84
  %61 = load ptr, ptr %10, align 8, !tbaa !69
  %62 = getelementptr inbounds nuw %struct.cdjpeg_progress_mgr, ptr %61, i32 0, i32 0
  %63 = getelementptr inbounds nuw %struct.jpeg_progress_mgr, ptr %62, i32 0, i32 0
  %64 = load ptr, ptr %63, align 8, !tbaa !85
  %65 = load ptr, ptr %3, align 8, !tbaa !4
  call void %64(ptr noundef %65)
  br label %66

66:                                               ; preds = %44, %41
  %67 = load ptr, ptr %3, align 8, !tbaa !4
  %68 = getelementptr inbounds nuw %struct.jpeg_decompress_struct, ptr %67, i32 0, i32 1
  %69 = load ptr, ptr %68, align 8, !tbaa !40
  %70 = getelementptr inbounds nuw %struct.jpeg_memory_mgr, ptr %69, i32 0, i32 7
  %71 = load ptr, ptr %70, align 8, !tbaa !86
  %72 = load ptr, ptr %3, align 8, !tbaa !4
  %73 = load ptr, ptr %5, align 8, !tbaa !43
  %74 = getelementptr inbounds nuw %struct.bmp_dest_struct, ptr %73, i32 0, i32 2
  %75 = load ptr, ptr %74, align 8, !tbaa !66
  %76 = load i32, ptr %9, align 4, !tbaa !9
  %77 = sub i32 %76, 1
  %78 = call ptr %71(ptr noundef %72, ptr noundef %75, i32 noundef %77, i32 noundef 1, i32 noundef 0)
  store ptr %78, ptr %7, align 8, !tbaa !87
  %79 = load ptr, ptr %7, align 8, !tbaa !87
  %80 = getelementptr inbounds ptr, ptr %79, i64 0
  %81 = load ptr, ptr %80, align 8, !tbaa !88
  store ptr %81, ptr %8, align 8, !tbaa !88
  %82 = load ptr, ptr %8, align 8, !tbaa !88
  %83 = load ptr, ptr %5, align 8, !tbaa !43
  %84 = getelementptr inbounds nuw %struct.bmp_dest_struct, ptr %83, i32 0, i32 4
  %85 = load i32, ptr %84, align 4, !tbaa !58
  %86 = zext i32 %85 to i64
  %87 = load ptr, ptr %6, align 8, !tbaa !82
  %88 = call i64 @fwrite(ptr noundef %82, i64 noundef 1, i64 noundef %86, ptr noundef %87)
  br label %89

89:                                               ; preds = %66
  %90 = load i32, ptr %9, align 4, !tbaa !9
  %91 = add i32 %90, -1
  store i32 %91, ptr %9, align 4, !tbaa !9
  br label %38, !llvm.loop !89

92:                                               ; preds = %38
  %93 = load ptr, ptr %10, align 8, !tbaa !69
  %94 = icmp ne ptr %93, null
  br i1 %94, label %95, label %100

95:                                               ; preds = %92
  %96 = load ptr, ptr %10, align 8, !tbaa !69
  %97 = getelementptr inbounds nuw %struct.cdjpeg_progress_mgr, ptr %96, i32 0, i32 1
  %98 = load i32, ptr %97, align 8, !tbaa !90
  %99 = add nsw i32 %98, 1
  store i32 %99, ptr %97, align 8, !tbaa !90
  br label %100

100:                                              ; preds = %95, %92
  br label %101

101:                                              ; preds = %100, %2
  %102 = load ptr, ptr %6, align 8, !tbaa !82
  %103 = call i32 @fflush(ptr noundef %102)
  %104 = load ptr, ptr %6, align 8, !tbaa !82
  %105 = call i32 @ferror(ptr noundef %104) #7
  %106 = icmp ne i32 %105, 0
  br i1 %106, label %107, label %118

107:                                              ; preds = %101
  %108 = load ptr, ptr %3, align 8, !tbaa !4
  %109 = getelementptr inbounds nuw %struct.jpeg_decompress_struct, ptr %108, i32 0, i32 0
  %110 = load ptr, ptr %109, align 8, !tbaa !34
  %111 = getelementptr inbounds nuw %struct.jpeg_error_mgr, ptr %110, i32 0, i32 5
  store i32 37, ptr %111, align 8, !tbaa !35
  %112 = load ptr, ptr %3, align 8, !tbaa !4
  %113 = getelementptr inbounds nuw %struct.jpeg_decompress_struct, ptr %112, i32 0, i32 0
  %114 = load ptr, ptr %113, align 8, !tbaa !34
  %115 = getelementptr inbounds nuw %struct.jpeg_error_mgr, ptr %114, i32 0, i32 0
  %116 = load ptr, ptr %115, align 8, !tbaa !39
  %117 = load ptr, ptr %3, align 8, !tbaa !4
  call void %116(ptr noundef %117)
  br label %118

118:                                              ; preds = %107, %101
  call void @llvm.lifetime.end.p0(i64 8, ptr %10) #7
  call void @llvm.lifetime.end.p0(i64 4, ptr %9) #7
  call void @llvm.lifetime.end.p0(i64 8, ptr %8) #7
  call void @llvm.lifetime.end.p0(i64 8, ptr %7) #7
  call void @llvm.lifetime.end.p0(i64 8, ptr %6) #7
  call void @llvm.lifetime.end.p0(i64 8, ptr %5) #7
  ret void
}