; Function Attrs: nounwind uwtable
define internal void @finish_output_bmp(ptr noundef %0, ptr noundef readonly captures(none) %1) #0 {
  %3 = getelementptr inbounds nuw i8, ptr %1, i64 32
  %4 = load ptr, ptr %3, align 8, !tbaa !70
  %5 = getelementptr inbounds nuw i8, ptr %0, i64 16
  %6 = load ptr, ptr %5, align 8, !tbaa !61
  %7 = getelementptr inbounds nuw i8, ptr %1, i64 104
  %8 = load i32, ptr %7, align 8, !tbaa !66
  %.not = icmp eq i32 %8, 0
  br i1 %.not, label %50, label %9

9:                                                ; preds = %2
  %10 = getelementptr inbounds nuw i8, ptr %1, i64 72
  %11 = load i32, ptr %10, align 8, !tbaa !48
  %.not35 = icmp eq i32 %11, 0
  br i1 %.not35, label %13, label %12

12:                                               ; preds = %9
  tail call fastcc void @write_os2_header(ptr noundef nonnull %0, ptr noundef nonnull %1)
  br label %14

13:                                               ; preds = %9
  tail call fastcc void @write_bmp_header(ptr noundef nonnull %0, ptr noundef nonnull %1)
  br label %14

14:                                               ; preds = %13, %12
  %15 = getelementptr inbounds nuw i8, ptr %0, i64 140
  %16 = load i32, ptr %15, align 4, !tbaa !58
  %.not3640 = icmp eq i32 %16, 0
  br i1 %.not3640, label %._crit_edge, label %.lr.ph

.lr.ph:                                           ; preds = %14
  %.not39 = icmp eq ptr %6, null
  %17 = getelementptr inbounds nuw i8, ptr %6, i64 8
  %18 = getelementptr inbounds nuw i8, ptr %6, i64 16
  %19 = getelementptr inbounds nuw i8, ptr %0, i64 8
  %20 = getelementptr inbounds nuw i8, ptr %1, i64 80
  %21 = getelementptr inbounds nuw i8, ptr %1, i64 92
  br i1 %.not39, label %.lr.ph.split.us, label %.lr.ph.split

.lr.ph.split.us:                                  ; preds = %.lr.ph, %.lr.ph.split.us
  %.041.us = phi i32 [ %26, %.lr.ph.split.us ], [ %16, %.lr.ph ]
  %22 = load ptr, ptr %19, align 8, !tbaa !37
  %23 = getelementptr inbounds nuw i8, ptr %22, i64 56
  %24 = load ptr, ptr %23, align 8, !tbaa !71
  %25 = load ptr, ptr %20, align 8, !tbaa !59
  %26 = add i32 %.041.us, -1
  %27 = tail call ptr %24(ptr noundef nonnull %0, ptr noundef %25, i32 noundef %26, i32 noundef 1, i32 noundef 0) #7
  %28 = load ptr, ptr %27, align 8, !tbaa !72
  %29 = load i32, ptr %21, align 4, !tbaa !54
  %30 = zext i32 %29 to i64
  %31 = tail call i64 @fwrite(ptr noundef %28, i64 noundef 1, i64 noundef %30, ptr noundef %4)
  %.not36.us = icmp eq i32 %26, 0
  br i1 %.not36.us, label %._crit_edge, label %.lr.ph.split.us, !llvm.loop !73

.lr.ph.split:                                     ; preds = %.lr.ph, %.lr.ph.split
  %.041 = phi i32 [ %41, %.lr.ph.split ], [ %16, %.lr.ph ]
  %32 = load i32, ptr %15, align 4, !tbaa !58
  %33 = sub i32 %32, %.041
  %34 = zext i32 %33 to i64
  store i64 %34, ptr %17, align 8, !tbaa !75
  %35 = zext i32 %32 to i64
  store i64 %35, ptr %18, align 8, !tbaa !76
  %36 = load ptr, ptr %6, align 8, !tbaa !77
  tail call void %36(ptr noundef nonnull %0) #7
  %37 = load ptr, ptr %19, align 8, !tbaa !37
  %38 = getelementptr inbounds nuw i8, ptr %37, i64 56
  %39 = load ptr, ptr %38, align 8, !tbaa !71
  %40 = load ptr, ptr %20, align 8, !tbaa !59
  %41 = add i32 %.041, -1
  %42 = tail call ptr %39(ptr noundef nonnull %0, ptr noundef %40, i32 noundef %41, i32 noundef 1, i32 noundef 0) #7
  %43 = load ptr, ptr %42, align 8, !tbaa !72
  %44 = load i32, ptr %21, align 4, !tbaa !54
  %45 = zext i32 %44 to i64
  %46 = tail call i64 @fwrite(ptr noundef %43, i64 noundef 1, i64 noundef %45, ptr noundef %4)
  %.not36 = icmp eq i32 %41, 0
  br i1 %.not36, label %._crit_edge.thread, label %.lr.ph.split, !llvm.loop !73

._crit_edge:                                      ; preds = %.lr.ph.split.us, %14
  %.not37 = icmp eq ptr %6, null
  br i1 %.not37, label %50, label %._crit_edge.thread

._crit_edge.thread:                               ; preds = %.lr.ph.split, %._crit_edge
  %47 = getelementptr inbounds nuw i8, ptr %6, i64 32
  %48 = load i32, ptr %47, align 8, !tbaa !78
  %49 = add nsw i32 %48, 1
  store i32 %49, ptr %47, align 8, !tbaa !78
  br label %50

50:                                               ; preds = %._crit_edge, %._crit_edge.thread, %2
  %51 = tail call i32 @fflush(ptr noundef %4)
  %52 = tail call i32 @ferror(ptr noundef %4) #7
  %.not38 = icmp eq i32 %52, 0
  br i1 %.not38, label %57, label %53

53:                                               ; preds = %50
  %54 = load ptr, ptr %0, align 8, !tbaa !31
  %55 = getelementptr inbounds nuw i8, ptr %54, i64 40
  store i32 37, ptr %55, align 8, !tbaa !32
  %56 = load ptr, ptr %54, align 8, !tbaa !36
  tail call void %56(ptr noundef nonnull %0) #7
  br label %57

57:                                               ; preds = %53, %50
  ret void
}